; Function Attrs: nounwind uwtable
define dso_local zeroext i1 @database_is_invalid_oid(i32 noundef %0) local_unnamed_addr #0 {
  %2 = zext i32 %0 to i64
  %3 = tail call ptr @SearchSysCache1(i32 noundef 21, i64 noundef %2) #16
  %.not = icmp eq ptr %3, null
  br i1 %.not, label %4, label %7

4:                                                ; preds = %1
  %5 = tail call zeroext i1 @errstart_cold(i32 noundef 21, ptr noundef null) #19
  tail call void @llvm.assume(i1 %5)
  %6 = tail call i32 (ptr, ...) @errmsg_internal(ptr noundef nonnull @.str.90, i32 noundef %0) #16
  tail call void @errfinish(ptr noundef nonnull @.str.18, i32 noundef 3229, ptr noundef nonnull @__func__.database_is_invalid_oid) #16
  unreachable

7:                                                ; preds = %1
  %8 = getelementptr i8, ptr %3, i64 16
  %.val = load ptr, ptr %8, align 8
  %9 = getelementptr inbounds nuw i8, ptr %.val, i64 22
  %10 = load i8, ptr %9, align 2
  %11 = zext i8 %10 to i64
  %12 = getelementptr inbounds nuw i8, ptr %.val, i64 %11
  %13 = getelementptr inbounds nuw i8, ptr %12, i64 80
  %14 = load i32, ptr %13, align 4
  %15 = icmp eq i32 %14, -2
  tail call void @ReleaseSysCache(ptr noundef nonnull %3) #16
  ret i1 %15
}